target datalayout = "e-m:e-p270:32:32-p271:32:32-p272:64:64-i64:64-i128:128-f80:128-n8:16:32:64-S128"
target triple = "x86_64-pc-linux-gnu"

%struct.sct_ctx_st = type { ptr, ptr, i64, ptr, i64, ptr, i64, ptr, i64, i64, ptr, ptr }

@.str = private unnamed_addr constant [34 x i8] c"../openssl/crypto/ct/ct_sct_ctx.c\00", align 1

; Function Attrs: nounwind uwtable
define void @SCT_CTX_free(ptr noundef %0) #0 {
  %2 = alloca ptr, align 8
  store ptr %0, ptr %2, align 8, !tbaa !10
  %3 = load ptr, ptr %2, align 8, !tbaa !10
  %4 = icmp eq ptr %3, null
  br i1 %4, label %5, label %6

5:                                                ; preds = %1
  br label %26

6:                                                ; preds = %1
  %7 = load ptr, ptr %2, align 8, !tbaa !10
  %8 = getelementptr inbounds nuw %struct.sct_ctx_st, ptr %7, i32 0, i32 0
  %9 = load ptr, ptr %8, align 8, !tbaa !17
  call void @EVP_PKEY_free(ptr noundef %9)
  %10 = load ptr, ptr %2, align 8, !tbaa !10
  %11 = getelementptr inbounds nuw %struct.sct_ctx_st, ptr %10, i32 0, i32 1
  %12 = load ptr, ptr %11, align 8, !tbaa !18
  call void @CRYPTO_free(ptr noundef %12, ptr noundef @.str, i32 noundef 47)
  %13 = load ptr, ptr %2, align 8, !tbaa !10
  %14 = getelementptr inbounds nuw %struct.sct_ctx_st, ptr %13, i32 0, i32 3
  %15 = load ptr, ptr %14, align 8, !tbaa !19
  call void @CRYPTO_free(ptr noundef %15, ptr noundef @.str, i32 noundef 48)
  %16 = load ptr, ptr %2, align 8, !tbaa !10
  %17 = getelementptr inbounds nuw %struct.sct_ctx_st, ptr %16, i32 0, i32 5
  %18 = load ptr, ptr %17, align 8, !tbaa !20
  call void @CRYPTO_free(ptr noundef %18, ptr noundef @.str, i32 noundef 49)
  %19 = load ptr, ptr %2, align 8, !tbaa !10
  %20 = getelementptr inbounds nuw %struct.sct_ctx_st, ptr %19, i32 0, i32 7
  %21 = load ptr, ptr %20, align 8, !tbaa !21
  call void @CRYPTO_free(ptr noundef %21, ptr noundef @.str, i32 noundef 50)
  %22 = load ptr, ptr %2, align 8, !tbaa !10
  %23 = getelementptr inbounds nuw %struct.sct_ctx_st, ptr %22, i32 0, i32 11
  %24 = load ptr, ptr %23, align 8, !tbaa !16
  call void @CRYPTO_free(ptr noundef %24, ptr noundef @.str, i32 noundef 51)
  %25 = load ptr, ptr %2, align 8, !tbaa !10
  call void @CRYPTO_free(ptr noundef %25, ptr noundef @.str, i32 noundef 52)
  br label %26

26:                                               ; preds = %6, %5
  ret void
}